Certificate:
    Data:
        Version: 3 (0x2)
        Serial Number: 1 (0x1)
        Signature Algorithm: sha256WithRSAEncryption
        Issuer: C=AU, ST=Some-State, O=Internet Widgits Pty Ltd, CN=CA
        Validity
            Not Before: Mar 20 22:44:07 2021 GMT
            Not After : Mar 20 22:44:07 2022 GMT
        Subject: C=AU, ST=Some-State, O=Internet Widgits Pty Ltd, CN=user1
        Subject Public Key Info:
            Public Key Algorithm: rsaEncryption
                RSA Public-Key: (2048 bit)
                Modulus:
                    00:c4:e5:26:c7:e7:6b:a1:57:39:b1:c9:79:6c:6d:
                    9b:db:f1:4e:d1:4a:43:4f:f5:2e:33:e0:f8:c7:31:
                    b7:ba:ee:b6:9b:d3:4b:82:28:7e:72:c7:55:0c:ab:
                    20:e5:a6:56:d5:64:47:12:2b:d1:33:f1:5f:fe:d9:
                    ee:eb:ac:f8:e1:21:fe:c0:ad:c9:dc:3c:03:ae:71:
                    11:c2:d7:53:7b:b6:cf:ba:42:0a:7d:00:04:36:08:
                    d0:f1:74:fe:d7:75:50:f7:91:8b:10:f2:22:4c:de:
                    88:b9:55:01:8d:55:8e:16:ba:ac:43:d0:26:c2:08:
                    e7:3a:07:93:d1:a3:65:6e:34:0f:d3:23:5e:25:f7:
                    cc:a7:f3:ae:8b:45:7b:33:bb:d6:90:e4:54:e5:eb:
                    dd:af:93:89:51:61:3e:7e:08:d3:30:31:38:f0:4f:
                    a9:d0:a3:db:99:c3:3c:4b:29:1e:cf:f0:0f:95:57:
                    22:cc:df:3c:02:4f:31:e9:3e:af:fb:6f:7e:d9:84:
                    a5:b5:67:8d:8e:1a:9b:6d:c2:9c:69:5b:16:3c:73:
                    1f:f6:e1:63:ed:30:4b:9e:c0:7d:a7:e8:0c:b1:6d:
                    46:2e:03:91:c1:6c:bd:20:b3:b0:aa:8c:5a:4d:76:
                    85:ba:b3:3b:f6:85:5c:77:1a:86:d9:09:8d:41:f8:
                    f3:e5
                Exponent: 65537 (0x10001)
        X509v3 extensions:
            X509v3 Basic Constraints: 
                CA:FALSE
            Netscape Comment: 
                OpenSSL Generated Certificate
            X509v3 Subject Key Identifier: 
                C8:1B:90:EA:B6:2A:45:A3:97:E1:32:CD:4A:EA:05:44:B8:C6:2A:D4
            X509v3 Authority Key Identifier: 
                keyid:8E:FE:88:E3:2F:51:DD:EB:70:63:2D:B4:E0:23:9A:73:E9:B2:A3:65

    Signature Algorithm: sha256WithRSAEncryption
         d5:78:0d:38:7a:73:af:30:f8:98:06:50:5a:ba:e7:1d:1b:53:
         52:96:a2:a1:a0:16:10:a5:84:dd:24:b1:7c:01:e8:c5:8d:9f:
         17:f4:a3:6b:f8:28:d5:eb:4d:94:09:34:9b:59:71:18:59:57:
         2f:c5:97:b5:0a:b4:0e:61:4b:f5:25:d6:6a:b2:91:35:71:8c:
         68:e8:3a:6a:26:34:82:9e:e8:7c:a5:01:fe:4e:26:c4:c1:51:
         78:c8:cc:72:14:cd:21:7f:b3:a1:0a:84:73:31:f1:67:72:37:
         7e:77:e7:80:4f:69:e3:7e:d8:af:1d:55:88:1f:6d:88:25:e5:
         ec:b7:6c:32:b4:b8:39:f7:2c:6c:b3:2f:b1:47:d2:69:8c:ec:
         e7:6e:83:2d:4d:6b:8d:5d:2d:05:18:48:70:48:52:70:56:b7:
         e6:3e:fc:ea:aa:c7:3d:ae:cc:c6:f8:8b:76:f8:95:b5:b3:27:
         a5:e5:1c:66:d8:a6:46:0a:e8:7a:d1:59:71:52:e7:28:a5:fc:
         41:75:1e:90:6e:c4:4a:6c:0a:8e:87:8a:20:26:06:c8:9b:42:
         4c:97:7b:e1:be:93:06:ab:0a:91:17:d4:a7:69:1b:45:08:f9:
         c8:a1:cc:d7:ab:b3:c9:d4:e4:49:75:c9:47:0b:f8:e9:1f:b6:
         d9:ed:cc:8f
-----BEGIN CERTIFICATE-----
MIIDnTCCAoWgAwIBAgIBATANBgkqhkiG9w0BAQsFADBSMQswCQYDVQQGEwJBVTET
MBEGA1UECAwKU29tZS1TdGF0ZTEhMB8GA1UECgwYSW50ZXJuZXQgV2lkZ2l0cyBQ
dHkgTHRkMQswCQYDVQQDDAJDQTAeFw0yMTAzMjAyMjQ0MDdaFw0yMjAzMjAyMjQ0
MDdaMFUxCzAJBgNVBAYTAkFVMRMwEQYDVQQIDApTb21lLVN0YXRlMSEwHwYDVQQK
DBhJbnRlcm5ldCBXaWRnaXRzIFB0eSBMdGQxDjAMBgNVBAMMBXVzZXIxMIIBIjAN
BgkqhkiG9w0BAQEFAAOCAQ8AMIIBCgKCAQEAxOUmx+droVc5scl5bG2b2/FO0UpD
T/UuM+D4xzG3uu62m9NLgih+csdVDKsg5aZW1WRHEivRM/Ff/tnu66z44SH+wK3J
3DwDrnERwtdTe7bPukIKfQAENgjQ8XT+13VQ95GLEPIiTN6IuVUBjVWOFrqsQ9Am
wgjnOgeT0aNlbjQP0yNeJffMp/Oui0V7M7vWkORU5evdr5OJUWE+fgjTMDE48E+p
0KPbmcM8Sykez/APlVcizN88Ak8x6T6v+29+2YSltWeNjhqbbcKcaVsWPHMf9uFj
7TBLnsB9p+gMsW1GLgORwWy9ILOwqoxaTXaFurM79oVcdxqG2QmNQfjz5QIDAQAB
o3sweTAJBgNVHRMEAjAAMCwGCWCGSAGG+EIBDQQfFh1PcGVuU1NMIEdlbmVyYXRl
ZCBDZXJ0aWZpY2F0ZTAdBgNVHQ4EFgQUyBuQ6rYqRaOX4TLNSuoFRLjGKtQwHwYD
VR0jBBgwFoAUjv6I4y9R3etwYy204COac+myo2UwDQYJKoZIhvcNAQELBQADggEB
ANV4DTh6c68w+JgGUFq65x0bU1KWoqGgFhClhN0ksXwB6MWNnxf0o2v4KNXrTZQJ
NJtZcRhZVy/Fl7UKtA5hS/Ul1mqykTVxjGjoOmomNIKe6HylAf5OJsTBUXjIzHIU
zSF/s6EKhHMx8WdyN35354BPaeN+2K8dVYgfbYgl5ey3bDK0uDn3LGyzL7FH0mmM
7Odugy1Na41dLQUYSHBIUnBWt+Y+/Oqqxz2uzMb4i3b4lbWzJ6XlHGbYpkYK6HrR
WXFS5yil/EF1HpBuxEpsCo6HiiAmBsibQkyXe+G+kwarCpEX1KdpG0UI+cihzNer
s8nU5El1yUcL+OkfttntzI8=
-----END CERTIFICATE-----
