Certificate:
    Data:
        Version: 3 (0x2)
        Serial Number: 2 (0x2)
        Signature Algorithm: sha256WithRSAEncryption
        Issuer: C=AU, ST=Some-State, O=Internet Widgits Pty Ltd, CN=CA
        Validity
            Not Before: Mar 20 22:54:49 2021 GMT
            Not After : Mar 20 22:54:49 2022 GMT
        Subject: C=AU, ST=Some-State, O=Internet Widgits Pty Ltd, CN=user2
        Subject Public Key Info:
            Public Key Algorithm: rsaEncryption
                RSA Public-Key: (2048 bit)
                Modulus:
                    00:b6:01:88:be:35:13:b3:7c:59:61:31:b1:14:66:
                    fd:07:6c:86:33:99:12:7b:50:cd:4b:b1:e5:95:47:
                    e5:1d:5a:df:b9:43:d9:88:91:0c:01:62:4e:6e:83:
                    fc:0e:68:25:6d:34:ba:2e:5e:71:4f:e8:fd:0e:fc:
                    21:3b:05:eb:5e:8e:9e:a3:7a:92:8c:c4:45:fe:19:
                    73:f9:a9:c7:8d:09:6f:40:6d:9a:82:b2:46:20:d1:
                    23:d4:d2:9a:00:82:cc:ce:f2:fa:f2:48:a2:c5:db:
                    7e:e5:c6:92:6c:50:fa:24:03:7a:45:9e:07:99:b6:
                    f5:0e:11:98:34:22:d3:03:c6:c9:e7:7b:4e:63:ab:
                    87:16:49:d2:b8:3e:f7:1b:a1:5a:28:aa:10:88:7c:
                    bb:98:23:4f:72:bc:8c:c9:29:37:1e:10:3f:4b:9a:
                    01:5b:2a:3e:f4:27:d1:8a:99:64:7e:a0:db:a4:b1:
                    73:90:ac:d3:2f:1d:ae:63:13:e4:5a:0d:f3:70:4f:
                    0c:9d:ff:ba:5f:ac:d0:f5:75:5c:b2:b4:ab:18:bb:
                    d9:2b:c6:58:90:22:58:46:29:ce:58:07:02:0a:cb:
                    67:de:3f:86:15:93:a2:54:ef:df:c3:71:1d:58:ad:
                    fa:fb:e4:d7:06:87:9a:77:18:0d:86:57:ff:0e:c3:
                    0d:73
                Exponent: 65537 (0x10001)
        X509v3 extensions:
            X509v3 Basic Constraints: 
                CA:FALSE
            Netscape Comment: 
                OpenSSL Generated Certificate
            X509v3 Subject Key Identifier: 
                42:6E:5D:BE:66:38:50:26:E5:CB:5B:07:85:9B:E2:66:C1:D8:3A:56
            X509v3 Authority Key Identifier: 
                keyid:8E:FE:88:E3:2F:51:DD:EB:70:63:2D:B4:E0:23:9A:73:E9:B2:A3:65

    Signature Algorithm: sha256WithRSAEncryption
         4f:58:7b:50:99:0e:d1:b3:16:9e:31:13:2b:d0:38:80:31:a1:
         2d:3e:1b:95:ef:a3:4a:94:8b:07:aa:8d:70:e7:75:50:5d:9a:
         38:47:cf:b1:52:17:da:2d:f7:de:88:55:1c:10:21:00:2e:ab:
         a3:3d:55:74:70:d2:62:2a:e1:eb:93:a0:92:de:94:b9:7c:56:
         a3:12:da:cb:40:01:22:06:7d:e0:f2:b8:f4:7d:94:05:80:fe:
         22:79:32:04:c3:73:47:78:28:f4:6b:5a:1a:2c:03:bf:1f:15:
         a0:8b:c3:53:8d:18:12:97:3a:1b:1b:d8:c1:1a:cb:9d:4c:ea:
         2f:52:10:a8:2e:34:3b:74:af:73:0a:b7:06:69:58:74:df:90:
         88:d2:32:ea:f0:e5:36:90:c9:49:de:f0:d2:c0:1f:22:6c:4f:
         b8:1d:5c:87:67:44:2e:88:c2:df:8d:d0:90:fb:26:e4:00:7f:
         a6:7a:e1:be:89:d8:b4:5e:c4:4f:5f:19:a5:e1:e0:3d:a8:9a:
         1a:43:52:dc:75:2e:5f:d6:5a:87:59:10:58:8e:bb:27:06:20:
         2f:82:d9:11:e7:91:e2:f5:8e:87:11:2b:cb:f7:41:f3:03:ba:
         60:80:79:7a:1a:93:00:e4:22:71:11:ff:ab:28:f7:68:37:4b:
         b3:5a:be:df
-----BEGIN CERTIFICATE-----
MIIDnTCCAoWgAwIBAgIBAjANBgkqhkiG9w0BAQsFADBSMQswCQYDVQQGEwJBVTET
MBEGA1UECAwKU29tZS1TdGF0ZTEhMB8GA1UECgwYSW50ZXJuZXQgV2lkZ2l0cyBQ
dHkgTHRkMQswCQYDVQQDDAJDQTAeFw0yMTAzMjAyMjU0NDlaFw0yMjAzMjAyMjU0
NDlaMFUxCzAJBgNVBAYTAkFVMRMwEQYDVQQIDApTb21lLVN0YXRlMSEwHwYDVQQK
DBhJbnRlcm5ldCBXaWRnaXRzIFB0eSBMdGQxDjAMBgNVBAMMBXVzZXIyMIIBIjAN
BgkqhkiG9w0BAQEFAAOCAQ8AMIIBCgKCAQEAtgGIvjUTs3xZYTGxFGb9B2yGM5kS
e1DNS7HllUflHVrfuUPZiJEMAWJOboP8DmglbTS6Ll5xT+j9DvwhOwXrXo6eo3qS
jMRF/hlz+anHjQlvQG2agrJGINEj1NKaAILMzvL68kiixdt+5caSbFD6JAN6RZ4H
mbb1DhGYNCLTA8bJ53tOY6uHFknSuD73G6FaKKoQiHy7mCNPcryMySk3HhA/S5oB
Wyo+9CfRiplkfqDbpLFzkKzTLx2uYxPkWg3zcE8Mnf+6X6zQ9XVcsrSrGLvZK8ZY
kCJYRinOWAcCCstn3j+GFZOiVO/fw3EdWK36++TXBoeadxgNhlf/DsMNcwIDAQAB
o3sweTAJBgNVHRMEAjAAMCwGCWCGSAGG+EIBDQQfFh1PcGVuU1NMIEdlbmVyYXRl
ZCBDZXJ0aWZpY2F0ZTAdBgNVHQ4EFgQUQm5dvmY4UCbly1sHhZviZsHYOlYwHwYD
VR0jBBgwFoAUjv6I4y9R3etwYy204COac+myo2UwDQYJKoZIhvcNAQELBQADggEB
AE9Ye1CZDtGzFp4xEyvQOIAxoS0+G5Xvo0qUiweqjXDndVBdmjhHz7FSF9ot996I
VRwQIQAuq6M9VXRw0mIq4euToJLelLl8VqMS2stAASIGfeDyuPR9lAWA/iJ5MgTD
c0d4KPRrWhosA78fFaCLw1ONGBKXOhsb2MEay51M6i9SEKguNDt0r3MKtwZpWHTf
kIjSMurw5TaQyUne8NLAHyJsT7gdXIdnRC6Iwt+N0JD7JuQAf6Z64b6J2LRexE9f
GaXh4D2omhpDUtx1Ll/WWodZEFiOuycGIC+C2RHnkeL1jocRK8v3QfMDumCAeXoa
kwDkInER/6so92g3S7Navt8=
-----END CERTIFICATE-----
