Certificate:
    Data:
        Version: 3 (0x2)
        Serial Number: 1 (0x1)
        Signature Algorithm: sha256WithRSAEncryption
        Issuer: C=AU, ST=Some-State, O=Internet Widgits Pty Ltd, CN=CA
        Validity
            Not Before: Mar 22 11:17:29 2021 GMT
            Not After : Mar 22 11:17:29 2022 GMT
        Subject: C=AU, ST=Some-State, O=Internet Widgits Pty Ltd, CN=user1
        Subject Public Key Info:
            Public Key Algorithm: rsaEncryption
                RSA Public-Key: (2048 bit)
                Modulus:
                    00:d7:82:98:b8:af:87:3f:56:ea:95:23:3f:79:72:
                    59:a9:ce:3a:cb:22:15:89:11:cb:4e:07:c3:34:2c:
                    6b:df:28:02:94:96:cd:e7:98:e6:a8:40:0c:bd:79:
                    0a:e9:e3:70:68:72:8b:9d:15:13:f3:76:4a:4d:98:
                    c3:a8:b7:44:2d:70:e3:23:c0:dd:0b:fc:d4:f1:7d:
                    dd:2b:91:0e:fb:d6:2c:b3:b8:36:e6:bb:d6:a1:14:
                    82:f6:31:18:7f:fd:74:97:15:33:1d:fb:26:52:6b:
                    73:5a:41:05:e4:55:a3:0e:fc:a5:dd:6b:c1:38:4e:
                    6e:02:a7:b3:42:69:75:67:54:f0:d7:26:d6:e2:41:
                    59:90:b9:33:de:94:85:33:f8:7d:6b:fa:46:75:73:
                    a7:64:fb:c7:9a:6c:25:bd:44:bd:91:5d:65:18:bb:
                    e2:66:5e:e1:d5:2c:c2:96:72:19:9d:ed:52:a9:25:
                    b8:13:12:38:75:24:4d:20:41:67:c4:db:90:3b:45:
                    bd:b1:0f:55:f5:2d:b4:03:1f:8c:f4:fd:f8:45:3f:
                    84:e3:91:3d:7b:72:7c:f0:d1:85:03:35:57:95:13:
                    e7:33:20:d4:27:69:2d:ce:c9:f9:cd:33:80:4e:c2:
                    6c:97:ef:0d:87:b6:d1:f5:e2:54:39:d6:36:23:a2:
                    14:af
                Exponent: 65537 (0x10001)
        X509v3 extensions:
            X509v3 Basic Constraints: 
                CA:FALSE
            Netscape Comment: 
                OpenSSL Generated Certificate
            X509v3 Subject Key Identifier: 
                25:04:16:6A:F6:0D:40:13:24:87:D7:D2:6C:21:8D:B4:31:4B:EE:48
            X509v3 Authority Key Identifier: 
                keyid:CD:32:FD:86:39:09:BB:C1:D7:DE:29:B6:9A:BD:EF:91:20:91:D4:BE

    Signature Algorithm: sha256WithRSAEncryption
         7f:37:46:c5:fe:78:bc:9c:bd:42:14:27:f1:1f:b3:1a:4f:36:
         f5:0c:cd:e9:02:72:73:14:23:98:02:8b:f3:ba:90:90:ff:ae:
         7c:13:f6:40:63:b6:cb:7e:f0:bc:4d:87:ca:91:af:30:f6:d7:
         b5:ab:02:15:24:54:23:85:ad:bc:f9:2d:ed:8d:36:77:65:6c:
         2e:78:be:ab:8a:c6:43:91:56:23:9a:8d:34:82:27:8e:cc:2b:
         e8:ae:46:7d:ca:b0:85:91:ec:14:f9:22:c4:b4:5b:b4:d4:38:
         a4:14:de:d3:1e:c7:68:7a:24:86:78:c7:96:5f:2a:9f:ea:41:
         fc:04:84:b6:1e:b4:46:24:d3:0a:5f:c3:0c:c3:53:c8:a3:1a:
         54:e7:04:fd:f4:54:e0:ec:e3:55:96:05:90:b3:87:0d:51:c0:
         eb:96:ba:d6:33:c3:d0:7c:57:de:59:38:52:f6:9b:47:01:95:
         62:03:56:be:11:a4:93:a0:b5:06:82:47:d4:bc:fd:11:c3:1c:
         d7:75:e5:ad:d7:e9:c4:06:28:e8:50:71:6e:71:f6:61:42:6b:
         ea:75:21:e0:65:94:51:95:b4:15:d0:df:1f:30:17:24:af:4c:
         8b:7b:84:3f:1d:d2:dc:b9:0d:f6:0c:70:45:b7:b5:f3:5a:04:
         81:f4:cf:06
-----BEGIN CERTIFICATE-----
MIIDnTCCAoWgAwIBAgIBATANBgkqhkiG9w0BAQsFADBSMQswCQYDVQQGEwJBVTET
MBEGA1UECAwKU29tZS1TdGF0ZTEhMB8GA1UECgwYSW50ZXJuZXQgV2lkZ2l0cyBQ
dHkgTHRkMQswCQYDVQQDDAJDQTAeFw0yMTAzMjIxMTE3MjlaFw0yMjAzMjIxMTE3
MjlaMFUxCzAJBgNVBAYTAkFVMRMwEQYDVQQIDApTb21lLVN0YXRlMSEwHwYDVQQK
DBhJbnRlcm5ldCBXaWRnaXRzIFB0eSBMdGQxDjAMBgNVBAMMBXVzZXIxMIIBIjAN
BgkqhkiG9w0BAQEFAAOCAQ8AMIIBCgKCAQEA14KYuK+HP1bqlSM/eXJZqc46yyIV
iRHLTgfDNCxr3ygClJbN55jmqEAMvXkK6eNwaHKLnRUT83ZKTZjDqLdELXDjI8Dd
C/zU8X3dK5EO+9Yss7g25rvWoRSC9jEYf/10lxUzHfsmUmtzWkEF5FWjDvyl3WvB
OE5uAqezQml1Z1Tw1ybW4kFZkLkz3pSFM/h9a/pGdXOnZPvHmmwlvUS9kV1lGLvi
Zl7h1SzClnIZne1SqSW4ExI4dSRNIEFnxNuQO0W9sQ9V9S20Ax+M9P34RT+E45E9
e3J88NGFAzVXlRPnMyDUJ2ktzsn5zTOATsJsl+8Nh7bR9eJUOdY2I6IUrwIDAQAB
o3sweTAJBgNVHRMEAjAAMCwGCWCGSAGG+EIBDQQfFh1PcGVuU1NMIEdlbmVyYXRl
ZCBDZXJ0aWZpY2F0ZTAdBgNVHQ4EFgQUJQQWavYNQBMkh9fSbCGNtDFL7kgwHwYD
VR0jBBgwFoAUzTL9hjkJu8HX3im2mr3vkSCR1L4wDQYJKoZIhvcNAQELBQADggEB
AH83RsX+eLycvUIUJ/EfsxpPNvUMzekCcnMUI5gCi/O6kJD/rnwT9kBjtst+8LxN
h8qRrzD217WrAhUkVCOFrbz5Le2NNndlbC54vquKxkORViOajTSCJ47MK+iuRn3K
sIWR7BT5IsS0W7TUOKQU3tMex2h6JIZ4x5ZfKp/qQfwEhLYetEYk0wpfwwzDU8ij
GlTnBP30VODs41WWBZCzhw1RwOuWutYzw9B8V95ZOFL2m0cBlWIDVr4RpJOgtQaC
R9S8/RHDHNd15a3X6cQGKOhQcW5x9mFCa+p1IeBllFGVtBXQ3x8wFySvTIt7hD8d
0ty5DfYMcEW3tfNaBIH0zwY=
-----END CERTIFICATE-----
