Certificate:
    Data:
        Version: 3 (0x2)
        Serial Number: 2 (0x2)
        Signature Algorithm: sha256WithRSAEncryption
        Issuer: C=AU, ST=Some-State, O=Internet Widgits Pty Ltd, CN=CA
        Validity
            Not Before: Mar 22 11:18:17 2021 GMT
            Not After : Mar 22 11:18:17 2022 GMT
        Subject: C=AU, ST=Some-State, O=Internet Widgits Pty Ltd, CN=user2
        Subject Public Key Info:
            Public Key Algorithm: rsaEncryption
                RSA Public-Key: (2048 bit)
                Modulus:
                    00:bd:9e:6e:ae:53:47:8d:f1:d0:d6:27:f8:ef:f1:
                    a2:1e:71:40:3b:09:7e:d9:31:7d:83:7b:66:22:77:
                    fe:3e:13:3e:71:60:c7:87:a6:05:69:a9:1d:12:41:
                    ad:59:13:64:fb:7d:65:8b:40:44:43:38:36:80:5b:
                    62:84:66:d8:a4:1c:0f:86:a0:a8:e4:1b:e8:02:22:
                    96:64:53:ad:8d:d5:08:c1:57:e4:56:ce:2a:38:40:
                    42:37:56:f1:22:23:2c:b2:f8:14:99:f1:74:ad:ab:
                    48:5a:1e:4b:ff:53:ff:80:57:e7:00:0c:0e:83:2f:
                    4e:72:e6:66:48:9d:a0:ba:28:ff:15:2b:fc:91:61:
                    fe:bf:a4:d8:14:41:3a:b5:6a:dc:74:56:92:7b:f4:
                    53:ee:33:cb:3c:0f:f8:f4:22:29:ed:d3:71:47:4f:
                    44:40:97:05:5b:87:f2:03:9e:ad:93:1f:28:d4:bc:
                    fc:1c:9b:90:fa:99:db:af:a8:5a:82:5f:00:fd:b5:
                    08:eb:d7:34:73:0e:f4:38:09:90:6b:e7:3a:0d:97:
                    89:46:c3:41:53:f7:59:3c:24:55:db:6e:a7:51:11:
                    65:60:b6:cb:25:f3:b0:97:d8:c0:17:c7:6d:83:94:
                    0f:70:e3:21:25:b2:82:c2:8a:29:87:f8:04:6d:5e:
                    b8:e1
                Exponent: 65537 (0x10001)
        X509v3 extensions:
            X509v3 Basic Constraints: 
                CA:FALSE
            Netscape Comment: 
                OpenSSL Generated Certificate
            X509v3 Subject Key Identifier: 
                2A:38:29:9B:2D:EE:EC:7E:6F:A6:92:CE:25:13:87:28:ED:D3:5A:B0
            X509v3 Authority Key Identifier: 
                keyid:CD:32:FD:86:39:09:BB:C1:D7:DE:29:B6:9A:BD:EF:91:20:91:D4:BE

    Signature Algorithm: sha256WithRSAEncryption
         8b:34:52:02:fb:ae:14:9f:30:dd:5b:70:53:9f:c7:6b:ba:bf:
         b4:55:ea:14:ae:b2:1b:fb:6a:71:90:80:5d:28:55:46:47:74:
         3e:d0:e0:5e:4d:ba:7b:b6:d1:67:e2:35:96:0c:cf:e8:da:0f:
         77:87:a3:63:8c:0c:79:9a:e5:40:04:cf:b8:0e:2d:01:9c:4c:
         78:de:58:d9:7e:33:60:e8:ac:f4:31:4d:65:a4:2c:3a:f2:6a:
         39:c8:35:24:05:0d:75:14:c8:b4:e4:90:2f:8d:99:c0:4b:70:
         9f:2a:89:04:18:1e:0c:35:ea:d6:8f:e8:7d:a8:e1:34:72:4f:
         64:c6:f1:91:83:e5:81:b2:b2:7a:23:a5:6f:4e:2d:90:c2:90:
         a4:ff:f5:13:a5:27:99:e8:f6:c6:4f:cc:b0:3c:40:86:0a:09:
         5f:db:92:bc:33:fc:19:bd:8a:94:ed:2d:f3:b6:12:33:14:1d:
         34:32:b7:68:6c:f4:c2:f0:f7:bb:e7:9f:b0:b3:4b:dc:7f:f4:
         77:75:e3:2a:20:d3:4a:95:5b:5d:64:4d:bb:45:64:8a:0e:52:
         13:07:10:6d:9d:15:39:c9:50:fe:a9:6e:bb:f1:e3:00:92:eb:
         b9:3e:20:f0:a1:ee:66:5d:d7:72:f2:6d:03:19:01:e9:32:79:
         30:39:6d:30
-----BEGIN CERTIFICATE-----
MIIDnTCCAoWgAwIBAgIBAjANBgkqhkiG9w0BAQsFADBSMQswCQYDVQQGEwJBVTET
MBEGA1UECAwKU29tZS1TdGF0ZTEhMB8GA1UECgwYSW50ZXJuZXQgV2lkZ2l0cyBQ
dHkgTHRkMQswCQYDVQQDDAJDQTAeFw0yMTAzMjIxMTE4MTdaFw0yMjAzMjIxMTE4
MTdaMFUxCzAJBgNVBAYTAkFVMRMwEQYDVQQIDApTb21lLVN0YXRlMSEwHwYDVQQK
DBhJbnRlcm5ldCBXaWRnaXRzIFB0eSBMdGQxDjAMBgNVBAMMBXVzZXIyMIIBIjAN
BgkqhkiG9w0BAQEFAAOCAQ8AMIIBCgKCAQEAvZ5urlNHjfHQ1if47/GiHnFAOwl+
2TF9g3tmInf+PhM+cWDHh6YFaakdEkGtWRNk+31li0BEQzg2gFtihGbYpBwPhqCo
5BvoAiKWZFOtjdUIwVfkVs4qOEBCN1bxIiMssvgUmfF0ratIWh5L/1P/gFfnAAwO
gy9OcuZmSJ2guij/FSv8kWH+v6TYFEE6tWrcdFaSe/RT7jPLPA/49CIp7dNxR09E
QJcFW4fyA56tkx8o1Lz8HJuQ+pnbr6hagl8A/bUI69c0cw70OAmQa+c6DZeJRsNB
U/dZPCRV226nURFlYLbLJfOwl9jAF8dtg5QPcOMhJbKCwooph/gEbV644QIDAQAB
o3sweTAJBgNVHRMEAjAAMCwGCWCGSAGG+EIBDQQfFh1PcGVuU1NMIEdlbmVyYXRl
ZCBDZXJ0aWZpY2F0ZTAdBgNVHQ4EFgQUKjgpmy3u7H5vppLOJROHKO3TWrAwHwYD
VR0jBBgwFoAUzTL9hjkJu8HX3im2mr3vkSCR1L4wDQYJKoZIhvcNAQELBQADggEB
AIs0UgL7rhSfMN1bcFOfx2u6v7RV6hSushv7anGQgF0oVUZHdD7Q4F5Nunu20Wfi
NZYMz+jaD3eHo2OMDHma5UAEz7gOLQGcTHjeWNl+M2DorPQxTWWkLDryajnINSQF
DXUUyLTkkC+NmcBLcJ8qiQQYHgw16taP6H2o4TRyT2TG8ZGD5YGysnojpW9OLZDC
kKT/9ROlJ5no9sZPzLA8QIYKCV/bkrwz/Bm9ipTtLfO2EjMUHTQyt2hs9MLw97vn
n7CzS9x/9Hd14yog00qVW11kTbtFZIoOUhMHEG2dFTnJUP6pbrvx4wCS67k+IPCh
7mZd13LybQMZAekyeTA5bTA=
-----END CERTIFICATE-----
